Certificate:
    Data:
        Version: 3 (0x2)
        Serial Number: 4097 (0x1001)
        Signature Algorithm: sha256WithRSAEncryption
        Issuer: CN=AC Intermediaria Guilherme Morschel
        Validity
            Not Before: Oct 25 18:11:20 2025 GMT
            Not After : Oct 25 18:11:20 2026 GMT
        Subject: CN=web.local
        Subject Public Key Info:
            Public Key Algorithm: rsaEncryption
                Public-Key: (2048 bit)
                Modulus:
                    00:c2:0d:6b:79:f9:47:cd:fd:e6:1f:d6:13:f4:f1:
                    31:7c:91:77:91:c3:c7:6c:43:04:b8:df:9b:74:c6:
                    4c:cc:9e:ac:91:88:18:95:12:65:a5:b3:52:b7:f0:
                    0d:8e:5a:49:1a:a8:a4:43:64:ec:99:5b:09:c9:a5:
                    90:d9:27:07:f4:02:08:3c:f9:2c:98:90:e9:28:80:
                    c0:29:33:a3:67:c8:87:8d:9a:17:6d:f0:d9:36:ad:
                    76:f0:7e:04:a6:9c:6a:df:93:f6:e7:bd:da:4e:4a:
                    fb:dd:dc:a8:72:d3:dc:2b:9d:72:f0:d5:ff:0c:eb:
                    6c:46:e1:ff:4a:84:0a:fb:b0:75:68:21:9a:df:8d:
                    14:48:4f:17:ab:00:f9:62:9f:c2:92:f8:e4:ba:da:
                    49:77:f2:6b:0c:d2:2b:c8:b5:a2:30:11:53:d2:60:
                    6e:26:f7:d7:97:70:3e:01:cb:04:91:4c:0b:23:84:
                    87:9b:3e:9d:d6:52:f4:09:d2:15:e6:99:d1:ae:ea:
                    65:ee:0a:83:db:c2:e5:d7:be:51:b2:9b:0f:a4:24:
                    9e:45:1c:c7:d0:a4:4a:30:8b:c7:5f:45:ae:79:3f:
                    38:cf:f8:0e:42:b2:d3:14:0a:43:57:ef:ac:0a:88:
                    11:07:1b:ea:9a:d6:50:ce:f1:c5:e0:a3:64:b5:88:
                    23:81
                Exponent: 65537 (0x10001)
        X509v3 extensions:
            X509v3 Basic Constraints: 
                CA:FALSE
            Netscape Cert Type: 
                SSL Server
            Netscape Comment: 
                Certificado TLS do Servidor
            X509v3 Subject Key Identifier: 
                2B:47:C7:6A:7F:74:5B:19:43:5B:27:5A:31:BF:4E:66:4F:0F:4E:6C
            X509v3 Authority Key Identifier: 
                66:32:73:41:47:77:61:82:35:D1:AE:D7:46:82:EF:23:E1:59:44:1C
            X509v3 Key Usage: critical
                Digital Signature, Key Encipherment
            X509v3 Extended Key Usage: 
                TLS Web Server Authentication
            X509v3 Subject Alternative Name: 
                DNS:web.local
    Signature Algorithm: sha256WithRSAEncryption
    Signature Value:
        97:51:8d:e3:b5:f9:e1:0a:b9:d0:d6:2b:9f:e2:20:b4:43:21:
        48:53:5d:3b:0e:f8:8e:3a:28:a8:ba:02:b2:31:1c:ce:86:74:
        da:a3:34:00:8e:39:c1:bd:9c:88:79:3a:b5:f4:2b:b1:e0:93:
        e2:a5:e6:5b:6d:f6:19:71:7c:69:ba:68:45:70:72:47:72:23:
        68:09:4c:4b:90:d8:0d:ba:4d:31:4c:89:49:ec:4b:b6:05:5a:
        9e:93:72:eb:3d:ff:9d:ad:4e:ac:a7:d8:35:c3:09:91:c2:d8:
        e0:fc:ee:6d:dc:ca:a0:a5:d2:3a:9c:56:b8:61:45:c3:46:71:
        62:08:f9:cc:64:7b:a0:3f:3e:6e:94:97:2a:0d:d9:30:c3:b6:
        32:79:90:0a:92:de:45:45:ed:d8:c8:bb:02:d1:c7:cc:49:02:
        fc:98:cf:8b:7c:69:1e:93:0d:f5:59:46:44:82:cb:9c:0d:8d:
        79:46:8b:53:6a:6c:9e:83:90:e6:a4:e9:fd:14:c7:eb:f8:aa:
        9f:54:9e:eb:1f:70:09:df:18:05:21:42:72:4a:bf:e7:33:15:
        b1:7e:c3:e7:07:3a:c2:aa:8c:92:bb:56:6b:4a:ee:ee:09:4e:
        2f:15:07:72:68:5a:ab:4c:29:6e:0a:dd:2f:69:c8:50:e1:2b:
        41:67:e9:11:49:b5:87:39:f4:c5:e9:5e:5c:ec:55:63:94:23:
        7e:46:91:5e:40:fd:cf:98:1e:df:5f:ee:92:1a:3a:af:af:9e:
        a9:b2:61:c5:5f:1f:33:2c:b0:4f:80:84:80:db:30:af:57:36:
        de:c6:b5:a4:aa:b0:69:a0:4f:81:9e:bc:3e:a9:ea:43:6c:3c:
        5b:73:31:34:d5:a8:ba:d2:c9:b5:d4:44:23:ec:75:30:c5:3c:
        a3:b7:13:78:f5:b2:e8:b4:1c:2e:4a:cd:6b:da:df:04:8c:93:
        be:c0:85:cb:b1:31:4e:07:19:2e:4b:99:27:b2:56:d6:e4:cc:
        54:04:ae:88:39:f0:7a:72:1a:d4:40:58:ef:ad:b0:03:e7:35:
        23:2a:54:e1:b2:06:24:51:d4:ba:6d:99:1c:78:d7:0a:2a:15:
        21:3b:60:9c:80:81:6a:f4:c9:19:a9:88:22:5f:c3:db:e3:b8:
        c0:d7:d5:53:89:cb:e1:fb:34:c3:0e:69:25:e7:5f:71:bd:38:
        48:fa:8d:53:28:9d:5d:93:27:2c:76:32:b2:34:88:42:9f:22:
        b8:da:45:e9:66:98:52:39:67:12:89:13:e0:43:12:03:18:16:
        17:3b:1f:25:eb:23:43:ff:aa:28:bc:e8:77:10:67:dc:f3:87:
        ef:db:61:be:b1:b7:ef:32
-----BEGIN CERTIFICATE-----
MIIEhzCCAm+gAwIBAgICEAEwDQYJKoZIhvcNAQELBQAwLjEsMCoGA1UEAwwjQUMg
SW50ZXJtZWRpYXJpYSBHdWlsaGVybWUgTW9yc2NoZWwwHhcNMjUxMDI1MTgxMTIw
WhcNMjYxMDI1MTgxMTIwWjAUMRIwEAYDVQQDDAl3ZWIubG9jYWwwggEiMA0GCSqG
SIb3DQEBAQUAA4IBDwAwggEKAoIBAQDCDWt5+UfN/eYf1hP08TF8kXeRw8dsQwS4
35t0xkzMnqyRiBiVEmWls1K38A2OWkkaqKRDZOyZWwnJpZDZJwf0Agg8+SyYkOko
gMApM6NnyIeNmhdt8Nk2rXbwfgSmnGrfk/bnvdpOSvvd3Khy09wrnXLw1f8M62xG
4f9KhAr7sHVoIZrfjRRITxerAPlin8KS+OS62kl38msM0ivItaIwEVPSYG4m99eX
cD4BywSRTAsjhIebPp3WUvQJ0hXmmdGu6mXuCoPbwuXXvlGymw+kJJ5FHMfQpEow
i8dfRa55PzjP+A5CstMUCkNX76wKiBEHG+qa1lDO8cXgo2S1iCOBAgMBAAGjgcgw
gcUwCQYDVR0TBAIwADARBglghkgBhvhCAQEEBAMCBkAwKgYJYIZIAYb4QgENBB0W
G0NlcnRpZmljYWRvIFRMUyBkbyBTZXJ2aWRvcjAdBgNVHQ4EFgQUK0fHan90WxlD
WydaMb9OZk8PTmwwHwYDVR0jBBgwFoAUZjJzQUd3YYI10a7XRoLvI+FZRBwwDgYD
VR0PAQH/BAQDAgWgMBMGA1UdJQQMMAoGCCsGAQUFBwMBMBQGA1UdEQQNMAuCCXdl
Yi5sb2NhbDANBgkqhkiG9w0BAQsFAAOCAgEAl1GN47X54Qq50NYrn+IgtEMhSFNd
Ow74jjooqLoCsjEczoZ02qM0AI45wb2ciHk6tfQrseCT4qXmW232GXF8abpoRXBy
R3IjaAlMS5DYDbpNMUyJSexLtgVanpNy6z3/na1OrKfYNcMJkcLY4PzubdzKoKXS
OpxWuGFFw0ZxYgj5zGR7oD8+bpSXKg3ZMMO2MnmQCpLeRUXt2Mi7AtHHzEkC/JjP
i3xpHpMN9VlGRILLnA2NeUaLU2psnoOQ5qTp/RTH6/iqn1Se6x9wCd8YBSFCckq/
5zMVsX7D5wc6wqqMkrtWa0ru7glOLxUHcmhaq0wpbgrdL2nIUOErQWfpEUm1hzn0
xeleXOxVY5QjfkaRXkD9z5ge31/ukho6r6+eqbJhxV8fMyywT4CEgNswr1c23sa1
pKqwaaBPgZ68PqnqQ2w8W3MxNNWoutLJtdREI+x1MMU8o7cTePWy6LQcLkrNa9rf
BIyTvsCFy7ExTgcZLkuZJ7JW1uTMVASuiDnwenIa1EBY762wA+c1IypU4bIGJFHU
um2ZHHjXCioVITtgnICBavTJGamIIl/D2+O4wNfVU4nL4fs0ww5pJedfcb04SPqN
UyidXZMnLHYysjSIQp8iuNpF6WaYUjlnEokT4EMSAxgWFzsfJesjQ/+qKLzodxBn
3POH79thvrG37zI=
-----END CERTIFICATE-----
